target datalayout = "e-m:e-p270:32:32-p271:32:32-p272:64:64-i64:64-i128:128-f80:128-n8:16:32:64-S128"
target triple = "x86_64-unknown-linux-gnu"

%"class.arrow::Buffer" = type { ptr, i8, i8, ptr, i64, i64, i8, %"class.std::shared_ptr", %"class.std::shared_ptr.2" }
%"class.std::shared_ptr" = type { %"class.std::__shared_ptr" }
%"class.std::__shared_ptr" = type { ptr, %"class.std::__shared_count" }
%"class.std::__shared_count" = type { ptr }
%"class.std::shared_ptr.2" = type { %"class.std::__shared_ptr.3" }
%"class.std::__shared_ptr.3" = type { ptr, %"class.std::__shared_count" }

; Function Attrs: mustprogress nounwind uwtable
define noundef zeroext i1 @_ZNK5arrow6Buffer6EqualsERKS0_l(ptr noundef nonnull align 8 dereferenceable(80) %this, ptr noundef nonnull align 8 dereferenceable(80) %other, i64 noundef %nbytes) #1 align 2 {
entry:
  %this.addr = alloca ptr, align 8
  %other.addr = alloca ptr, align 8
  %nbytes.addr = alloca i64, align 8
  store ptr %this, ptr %this.addr, align 8
  store ptr %other, ptr %other.addr, align 8
  store i64 %nbytes, ptr %nbytes.addr, align 8
  %this1 = load ptr, ptr %this.addr, align 8
  %0 = load ptr, ptr %other.addr, align 8
  %cmp = icmp eq ptr %this1, %0
  br i1 %cmp, label %lor.end10, label %lor.rhs

lor.rhs:                                          ; preds = %entry
  %size_ = getelementptr inbounds %"class.arrow::Buffer", ptr %this1, i32 0, i32 4
  %1 = load i64, ptr %size_, align 8
  %2 = load i64, ptr %nbytes.addr, align 8
  %cmp2 = icmp sge i64 %1, %2
  br i1 %cmp2, label %land.lhs.true, label %land.end

land.lhs.true:                                    ; preds = %lor.rhs
  %3 = load ptr, ptr %other.addr, align 8
  %size_3 = getelementptr inbounds %"class.arrow::Buffer", ptr %3, i32 0, i32 4
  %4 = load i64, ptr %size_3, align 8
  %5 = load i64, ptr %nbytes.addr, align 8
  %cmp4 = icmp sge i64 %4, %5
  br i1 %cmp4, label %land.rhs, label %land.end

land.rhs:                                         ; preds = %land.lhs.true
  %data_ = getelementptr inbounds %"class.arrow::Buffer", ptr %this1, i32 0, i32 3
  %6 = load ptr, ptr %data_, align 8
  %7 = load ptr, ptr %other.addr, align 8
  %data_5 = getelementptr inbounds %"class.arrow::Buffer", ptr %7, i32 0, i32 3
  %8 = load ptr, ptr %data_5, align 8
  %cmp6 = icmp eq ptr %6, %8
  br i1 %cmp6, label %lor.end, label %lor.rhs7

lor.rhs7:                                         ; preds = %land.rhs
  %data_8 = getelementptr inbounds %"class.arrow::Buffer", ptr %this1, i32 0, i32 3
  %9 = load ptr, ptr %data_8, align 8
  %10 = load ptr, ptr %other.addr, align 8
  %data_9 = getelementptr inbounds %"class.arrow::Buffer", ptr %10, i32 0, i32 3
  %11 = load ptr, ptr %data_9, align 8
  %12 = load i64, ptr %nbytes.addr, align 8
  %call = call i32 @memcmp(ptr noundef %9, ptr noundef %11, i64 noundef %12) #15
  %tobool = icmp ne i32 %call, 0
  %lnot = xor i1 %tobool, true
  br label %lor.end

lor.end:                                          ; preds = %lor.rhs7, %land.rhs
  %13 = phi i1 [ true, %land.rhs ], [ %lnot, %lor.rhs7 ]
  br label %land.end

land.end:                                         ; preds = %lor.end, %land.lhs.true, %lor.rhs
  %14 = phi i1 [ false, %land.lhs.true ], [ false, %lor.rhs ], [ %13, %lor.end ]
  br label %lor.end10

lor.end10:                                        ; preds = %land.end, %entry
  %15 = phi i1 [ true, %entry ], [ %14, %land.end ]
  ret i1 %15
}