; Function Attrs: mustprogress nofree nounwind willreturn memory(read, inaccessiblemem: none) uwtable
define noundef zeroext i1 @_ZNK5arrow6Buffer6EqualsERKS0_l(ptr noundef nonnull readonly align 8 dereferenceable(80) %this, ptr noundef nonnull readonly align 8 dereferenceable(80) %other, i64 noundef %nbytes) local_unnamed_addr #5 align 2 {
entry:
  %cmp = icmp eq ptr %this, %other
  br i1 %cmp, label %lor.end10, label %lor.rhs

lor.rhs:                                          ; preds = %entry
  %size_ = getelementptr inbounds i8, ptr %this, i64 24
  %0 = load i64, ptr %size_, align 8
  %cmp2.not = icmp slt i64 %0, %nbytes
  %size_3 = getelementptr inbounds i8, ptr %other, i64 24
  %1 = load i64, ptr %size_3, align 8
  %cmp4.not = icmp slt i64 %1, %nbytes
  %or.cond = select i1 %cmp2.not, i1 true, i1 %cmp4.not
  br i1 %or.cond, label %lor.end10, label %land.rhs

land.rhs:                                         ; preds = %lor.rhs
  %data_ = getelementptr inbounds i8, ptr %this, i64 16
  %2 = load ptr, ptr %data_, align 8
  %data_5 = getelementptr inbounds i8, ptr %other, i64 16
  %3 = load ptr, ptr %data_5, align 8
  %cmp6 = icmp eq ptr %2, %3
  br i1 %cmp6, label %lor.end10, label %lor.rhs7

lor.rhs7:                                         ; preds = %land.rhs
  %bcmp = tail call i32 @bcmp(ptr %2, ptr %3, i64 %nbytes)
  %tobool.not = icmp eq i32 %bcmp, 0
  br label %lor.end10

lor.end10:                                        ; preds = %lor.rhs, %lor.rhs7, %land.rhs, %entry
  %4 = phi i1 [ true, %entry ], [ false, %lor.rhs ], [ true, %land.rhs ], [ %tobool.not, %lor.rhs7 ]
  ret i1 %4
}